target datalayout = "e-m:e-p270:32:32-p271:32:32-p272:64:64-i64:64-i128:128-f80:128-n8:16:32:64-S128"
target triple = "x86_64-pc-linux-gnu"

%struct.H5CX_node_t = type { %struct.H5CX_t, ptr }
%struct.H5CX_t = type { i64, ptr, i64, ptr, i64, ptr, i64, ptr, i64, ptr, i64, ptr, i64, i32, i64, i8, ptr, i8, ptr, i8, i32, i8, [3 x double], i8, i64, i8, i32, i8, %struct.H5Z_cb_t, i8, ptr, i8, %struct.H5T_vlen_alloc_info_t, i8, %struct.H5T_conv_cb_t, i8, i32, i8, i8, i8, i32, i8, i8, i32, i8, i8, i32, i8, i32, i8, i64, i8, i8, i8, i8, i8, ptr, i8, ptr, i8, i32, i8, i32, i8, %struct.H5VL_connector_prop_t, i8, ptr, i8 }
%struct.H5Z_cb_t = type { ptr, ptr }
%struct.H5T_vlen_alloc_info_t = type { ptr, ptr, ptr, ptr }
%struct.H5T_conv_cb_t = type { ptr, ptr }
%struct.H5VL_connector_prop_t = type { ptr, ptr }

@H5_libinit_g = external global i8, align 1
@H5_libterm_g = external global i8, align 1
@.str = private unnamed_addr constant [97 x i8] c"generated/home/dtcxzyw/WorkSpace/Projects/compilers/llvm-opt-benchmark/bench/hdf5/hdf5/src/H5L.c\00", align 1
@H5E_FUNC_g = external global i64, align 8
@H5E_CANTINIT_g = external global i64, align 8
@.str.1 = private unnamed_addr constant [30 x i8] c"library initialization failed\00", align 1
@H5L_init_g = external global i8, align 1
@.str.2 = private unnamed_addr constant [32 x i8] c"interface initialization failed\00", align 1
@H5E_CANTSET_g = external global i64, align 8
@.str.3 = private unnamed_addr constant [22 x i8] c"can't set API context\00", align 1
@H5E_LINK_g = external global i64, align 8
@__func__.H5Literate2 = private unnamed_addr constant [12 x i8] c"H5Literate2\00", align 1
@H5E_BADITER_g = external global i64, align 8
@.str.75 = private unnamed_addr constant [34 x i8] c"synchronous link iteration failed\00", align 1

; Function Attrs: nounwind uwtable
define i32 @H5Literate2(i64 noundef %0, i32 noundef %1, i32 noundef %2, ptr noundef %3, ptr noundef %4, ptr noundef %5) #0 {
  %7 = alloca i64, align 8
  %8 = alloca i32, align 4
  %9 = alloca i32, align 4
  %10 = alloca ptr, align 8
  %11 = alloca ptr, align 8
  %12 = alloca ptr, align 8
  %13 = alloca i32, align 4
  %14 = alloca %struct.H5CX_node_t, align 8
  %15 = alloca i8, align 1
  %16 = alloca i8, align 1
  store i64 %0, ptr %7, align 8, !tbaa !3
  store i32 %1, ptr %8, align 4, !tbaa !12
  store i32 %2, ptr %9, align 4, !tbaa !12
  store ptr %3, ptr %10, align 8, !tbaa !41
  store ptr %4, ptr %11, align 8, !tbaa !22
  store ptr %5, ptr %12, align 8, !tbaa !22
  call void @llvm.lifetime.start.p0(i64 4, ptr %13) #8
  call void @llvm.lifetime.start.p0(i64 480, ptr %14) #8
  call void @llvm.memset.p0.i64(ptr align 8 %14, i8 0, i64 480, i1 false)
  call void @llvm.lifetime.start.p0(i64 1, ptr %15) #8
  store i8 0, ptr %15, align 1, !tbaa !14
  call void @llvm.lifetime.start.p0(i64 1, ptr %16) #8
  store i8 0, ptr %16, align 1, !tbaa !14
  br label %17

17:                                               ; preds = %6
  %18 = load i8, ptr @H5_libinit_g, align 1, !tbaa !14, !range !16, !noundef !17
  %19 = trunc i8 %18 to i1
  br i1 %19, label %24, label %20

20:                                               ; preds = %17
  %21 = load i8, ptr @H5_libterm_g, align 1, !tbaa !14, !range !16, !noundef !17
  %22 = trunc i8 %21 to i1
  %23 = xor i1 %22, true
  br label %24

24:                                               ; preds = %20, %17
  %25 = phi i1 [ false, %17 ], [ %23, %20 ]
  %26 = xor i1 %25, true
  %27 = xor i1 %26, true
  %28 = zext i1 %27 to i32
  %29 = sext i32 %28 to i64
  %30 = call i64 @llvm.expect.i64(i64 %29, i64 0)
  %31 = icmp ne i64 %30, 0
  br i1 %31, label %32, label %61

32:                                               ; preds = %24
  %33 = call i32 @H5_init_library()
  %34 = icmp slt i32 %33, 0
  %35 = xor i1 %34, true
  %36 = xor i1 %35, true
  %37 = zext i1 %36 to i32
  %38 = sext i32 %37 to i64
  %39 = call i64 @llvm.expect.i64(i64 %38, i64 0)
  %40 = icmp ne i64 %39, 0
  br i1 %40, label %41, label %60

41:                                               ; preds = %32
  br label %42

42:                                               ; preds = %41
  br label %43

43:                                               ; preds = %42
  br label %44

44:                                               ; preds = %43
  %45 = load i64, ptr @H5E_FUNC_g, align 8, !tbaa !3
  %46 = load i64, ptr @H5E_CANTINIT_g, align 8, !tbaa !3
  %47 = call i32 (ptr, ptr, i32, i64, i64, ptr, ...) @H5E_printf_stack(ptr noundef @.str, ptr noundef @__func__.H5Literate2, i32 noundef 1603, i64 noundef %45, i64 noundef %46, ptr noundef @.str.1)
  br label %48

48:                                               ; preds = %44
  br label %49

49:                                               ; preds = %48
  store i8 1, ptr %16, align 1, !tbaa !14
  %50 = load i8, ptr %16, align 1, !tbaa !14, !range !16, !noundef !17
  %51 = trunc i8 %50 to i1
  %52 = zext i1 %51 to i8
  store i8 %52, ptr %16, align 1, !tbaa !14
  br label %53

53:                                               ; preds = %49
  br label %54

54:                                               ; preds = %53
  br label %55

55:                                               ; preds = %54
  store i32 -1, ptr %13, align 4, !tbaa !12
  br label %163

56:                                               ; No predecessors!
  br label %57

57:                                               ; preds = %56
  br label %58

58:                                               ; preds = %57
  br label %59

59:                                               ; preds = %58
  br label %60

60:                                               ; preds = %59, %32
  br label %61

61:                                               ; preds = %60, %24
  %62 = load i8, ptr @H5L_init_g, align 1, !tbaa !14, !range !16, !noundef !17
  %63 = trunc i8 %62 to i1
  br i1 %63, label %68, label %64

64:                                               ; preds = %61
  %65 = load i8, ptr @H5_libterm_g, align 1, !tbaa !14, !range !16, !noundef !17
  %66 = trunc i8 %65 to i1
  %67 = xor i1 %66, true
  br label %68

68:                                               ; preds = %64, %61
  %69 = phi i1 [ false, %61 ], [ %67, %64 ]
  %70 = xor i1 %69, true
  %71 = xor i1 %70, true
  %72 = zext i1 %71 to i32
  %73 = sext i32 %72 to i64
  %74 = call i64 @llvm.expect.i64(i64 %73, i64 0)
  %75 = icmp ne i64 %74, 0
  br i1 %75, label %76, label %99

76:                                               ; preds = %68
  store i8 1, ptr @H5L_init_g, align 1, !tbaa !14
  %77 = call i32 @H5L__init_package()
  %78 = icmp slt i32 %77, 0
  br i1 %78, label %79, label %98

79:                                               ; preds = %76
  store i8 0, ptr @H5L_init_g, align 1, !tbaa !14
  br label %80

80:                                               ; preds = %79
  br label %81

81:                                               ; preds = %80
  br label %82

82:                                               ; preds = %81
  %83 = load i64, ptr @H5E_FUNC_g, align 8, !tbaa !3
  %84 = load i64, ptr @H5E_CANTINIT_g, align 8, !tbaa !3
  %85 = call i32 (ptr, ptr, i32, i64, i64, ptr, ...) @H5E_printf_stack(ptr noundef @.str, ptr noundef @__func__.H5Literate2, i32 noundef 1603, i64 noundef %83, i64 noundef %84, ptr noundef @.str.2)
  br label %86

86:                                               ; preds = %82
  br label %87

87:                                               ; preds = %86
  store i8 1, ptr %16, align 1, !tbaa !14
  %88 = load i8, ptr %16, align 1, !tbaa !14, !range !16, !noundef !17
  %89 = trunc i8 %88 to i1
  %90 = zext i1 %89 to i8
  store i8 %90, ptr %16, align 1, !tbaa !14
  br label %91

91:                                               ; preds = %87
  br label %92

92:                                               ; preds = %91
  br label %93

93:                                               ; preds = %92
  store i32 -1, ptr %13, align 4, !tbaa !12
  br label %163

94:                                               ; No predecessors!
  br label %95

95:                                               ; preds = %94
  br label %96

96:                                               ; preds = %95
  br label %97

97:                                               ; preds = %96
  br label %98

98:                                               ; preds = %97, %76
  br label %99

99:                                               ; preds = %98, %68
  br label %100

100:                                              ; preds = %99
  br label %101

101:                                              ; preds = %100
  br label %102

102:                                              ; preds = %101
  %103 = call i32 @H5CX_push(ptr noundef %14)
  %104 = icmp slt i32 %103, 0
  %105 = xor i1 %104, true
  %106 = xor i1 %105, true
  %107 = zext i1 %106 to i32
  %108 = sext i32 %107 to i64
  %109 = call i64 @llvm.expect.i64(i64 %108, i64 0)
  %110 = icmp ne i64 %109, 0
  br i1 %110, label %111, label %130

111:                                              ; preds = %102
  br label %112

112:                                              ; preds = %111
  br label %113

113:                                              ; preds = %112
  br label %114

114:                                              ; preds = %113
  %115 = load i64, ptr @H5E_FUNC_g, align 8, !tbaa !3
  %116 = load i64, ptr @H5E_CANTSET_g, align 8, !tbaa !3
  %117 = call i32 (ptr, ptr, i32, i64, i64, ptr, ...) @H5E_printf_stack(ptr noundef @.str, ptr noundef @__func__.H5Literate2, i32 noundef 1603, i64 noundef %115, i64 noundef %116, ptr noundef @.str.3)
  br label %118

118:                                              ; preds = %114
  br label %119

119:                                              ; preds = %118
  store i8 1, ptr %16, align 1, !tbaa !14
  %120 = load i8, ptr %16, align 1, !tbaa !14, !range !16, !noundef !17
  %121 = trunc i8 %120 to i1
  %122 = zext i1 %121 to i8
  store i8 %122, ptr %16, align 1, !tbaa !14
  br label %123

123:                                              ; preds = %119
  br label %124

124:                                              ; preds = %123
  br label %125

125:                                              ; preds = %124
  store i32 -1, ptr %13, align 4, !tbaa !12
  br label %163

126:                                              ; No predecessors!
  br label %127

127:                                              ; preds = %126
  br label %128

128:                                              ; preds = %127
  br label %129

129:                                              ; preds = %128
  br label %131

130:                                              ; preds = %102
  store i8 1, ptr %15, align 1, !tbaa !14
  br label %131

131:                                              ; preds = %130, %129
  br label %132

132:                                              ; preds = %131
  br label %133

133:                                              ; preds = %132
  %134 = call i32 @H5E_clear_stack()
  %135 = load i64, ptr %7, align 8, !tbaa !3
  %136 = load i32, ptr %8, align 4, !tbaa !12
  %137 = load i32, ptr %9, align 4, !tbaa !12
  %138 = load ptr, ptr %10, align 8, !tbaa !41
  %139 = load ptr, ptr %11, align 8, !tbaa !22
  %140 = load ptr, ptr %12, align 8, !tbaa !22
  %141 = call i32 @H5L__iterate_api_common(i64 noundef %135, i32 noundef %136, i32 noundef %137, ptr noundef %138, ptr noundef %139, ptr noundef %140, ptr noundef null, ptr noundef null)
  store i32 %141, ptr %13, align 4, !tbaa !12
  %142 = icmp slt i32 %141, 0
  br i1 %142, label %143, label %162

143:                                              ; preds = %133
  br label %144

144:                                              ; preds = %143
  br label %145

145:                                              ; preds = %144
  br label %146

146:                                              ; preds = %145
  %147 = load i64, ptr @H5E_LINK_g, align 8, !tbaa !3
  %148 = load i64, ptr @H5E_BADITER_g, align 8, !tbaa !3
  %149 = call i32 (ptr, ptr, i32, i64, i64, ptr, ...) @H5E_printf_stack(ptr noundef @.str, ptr noundef @__func__.H5Literate2, i32 noundef 1607, i64 noundef %147, i64 noundef %148, ptr noundef @.str.75)
  br label %150

150:                                              ; preds = %146
  br label %151

151:                                              ; preds = %150
  store i8 1, ptr %16, align 1, !tbaa !14
  %152 = load i8, ptr %16, align 1, !tbaa !14, !range !16, !noundef !17
  %153 = trunc i8 %152 to i1
  %154 = zext i1 %153 to i8
  store i8 %154, ptr %16, align 1, !tbaa !14
  br label %155

155:                                              ; preds = %151
  br label %156

156:                                              ; preds = %155
  br label %157

157:                                              ; preds = %156
  store i32 -1, ptr %13, align 4, !tbaa !12
  br label %163

158:                                              ; No predecessors!
  br label %159

159:                                              ; preds = %158
  br label %160

160:                                              ; preds = %159
  br label %161

161:                                              ; preds = %160
  br label %162

162:                                              ; preds = %161, %133
  br label %163

163:                                              ; preds = %162, %157, %125, %93, %55
  %164 = load i8, ptr %15, align 1, !tbaa !14, !range !16, !noundef !17
  %165 = trunc i8 %164 to i1
  %166 = xor i1 %165, true
  %167 = xor i1 %166, true
  %168 = zext i1 %167 to i32
  %169 = sext i32 %168 to i64
  %170 = call i64 @llvm.expect.i64(i64 %169, i64 1)
  %171 = icmp ne i64 %170, 0
  br i1 %171, label %172, label %174

172:                                              ; preds = %163
  %173 = call i32 @H5CX_pop(i1 noundef zeroext true)
  store i8 0, ptr %15, align 1, !tbaa !14
  br label %174

174:                                              ; preds = %172, %163
  %175 = load i8, ptr %16, align 1, !tbaa !14, !range !16, !noundef !17
  %176 = trunc i8 %175 to i1
  %177 = xor i1 %176, true
  %178 = xor i1 %177, true
  %179 = zext i1 %178 to i32
  %180 = sext i32 %179 to i64
  %181 = call i64 @llvm.expect.i64(i64 %180, i64 0)
  %182 = icmp ne i64 %181, 0
  br i1 %182, label %183, label %185

183:                                              ; preds = %174
  %184 = call i32 @H5E_dump_api_stack()
  br label %185

185:                                              ; preds = %183, %174
  %186 = load i32, ptr %13, align 4, !tbaa !12
  call void @llvm.lifetime.end.p0(i64 1, ptr %16) #8
  call void @llvm.lifetime.end.p0(i64 1, ptr %15) #8
  call void @llvm.lifetime.end.p0(i64 480, ptr %14) #8
  call void @llvm.lifetime.end.p0(i64 4, ptr %13) #8
  ret i32 %186
}